; Function Attrs: mustprogress uwtable
define void @_ZN6icu_7514SimpleTimeZoneC2EiRKNS_13UnicodeStringE(ptr noundef nonnull align 8 dereferenceable(160) %this, i32 noundef %rawOffsetGMT, ptr noundef nonnull align 8 dereferenceable(64) %ID) unnamed_addr #1 align 2 personality ptr @__gxx_personality_v0 {
entry:
  tail call void @_ZN6icu_7513BasicTimeZoneC2ERKNS_13UnicodeStringE(ptr noundef nonnull align 8 dereferenceable(72) %this, ptr noundef nonnull align 8 dereferenceable(64) %ID)
  store ptr getelementptr inbounds ({ [24 x ptr] }, ptr @_ZTVN6icu_7514SimpleTimeZoneE, i64 0, i32 0, i64 2), ptr %this, align 8
  %startMonth = getelementptr inbounds i8, ptr %this, i64 72
  store i8 0, ptr %startMonth, align 8
  %startDay = getelementptr inbounds i8, ptr %this, i64 73
  store i8 0, ptr %startDay, align 1
  %startDayOfWeek = getelementptr inbounds i8, ptr %this, i64 74
  store i8 0, ptr %startDayOfWeek, align 2
  %startTime = getelementptr inbounds i8, ptr %this, i64 76
  %endTime = getelementptr inbounds i8, ptr %this, i64 92
  store i32 0, ptr %endTime, align 4
  %startYear = getelementptr inbounds i8, ptr %this, i64 96
  store i32 0, ptr %startYear, align 8
  %rawOffset = getelementptr inbounds i8, ptr %this, i64 100
  tail call void @llvm.memset.p0.i64(ptr noundef nonnull align 4 dereferenceable(15) %startTime, i8 0, i64 15, i1 false)
  store i32 %rawOffsetGMT, ptr %rawOffset, align 4
  %useDaylight = getelementptr inbounds i8, ptr %this, i64 104
  store i8 0, ptr %useDaylight, align 8
  %startMode = getelementptr inbounds i8, ptr %this, i64 108
  store i32 1, ptr %startMode, align 4
  %endMode = getelementptr inbounds i8, ptr %this, i64 112
  store i32 1, ptr %endMode, align 8
  %dstSavings = getelementptr inbounds i8, ptr %this, i64 116
  store i32 3600000, ptr %dstSavings, align 4
  %initialRule.i = getelementptr inbounds i8, ptr %this, i64 128
  %transitionRulesInitialized.i = getelementptr inbounds i8, ptr %this, i64 120
  store i8 0, ptr %transitionRulesInitialized.i, align 8
  tail call void @llvm.memset.p0.i64(ptr noundef nonnull align 8 dereferenceable(32) %initialRule.i, i8 0, i64 32, i1 false)
  ret void
}